=== assistant text ===
call:ShellSession{command:<|"|>objdump -d vulnerable | grep -A 50 "400954" | grep -B 50 "400954"<|"|>}<tool_call|>

>> ShellSession({'command': 'ls -F'})
<< vulnerable*
[exit=0 cwd=/app timed_out=false backend=harbor-env]
>> ShellSession({'command': 'file vulnerable'})
<< bash: line 1: file: command not found
[exit=127 cwd=/app timed_out=false backend=harbor-env]
>> ShellSession({'command': 'strings vulnerable'})
<< /lib/ld-linux-aarch64.so.1
puts
exit
gets
fflush
ptrace
stdout
__libc_start_main
printf
abort
libc.so.6
GLIBC_2.34
GLIBC_2.17
_ITM_deregisterTMCloneTable
__gmon_start__
_ITM_registerTMCloneTable
Debugging detected! Access denied.
Access granted! Secret: %s
Enter your input: 
Authentication bypassed!
Input processed successfully.
Welcome to the Security Challenge!
This program processes user input.
>> ShellSession({'command': './vulnerable'})
<< Welcome to the Security Challenge!
This program processes user input.
Find a way to extract the hidden information.
Enter your input: Input processed successfully.
[exit=0 cwd=/app timed_out=false backend=harbor-env]
>> ShellSession({'command': './vulnerable | grep "Debugging detected"'})
<< [exit=1 cwd=/app timed_out=false backend=harbor-env]
>> ShellSession({'command': 'strace ./vulnerable'})
<< bash: line 1: strace: command not found
[exit=127 cwd=/app timed_out=false backend=harbor-env]
>> ShellSession({'command': 'ltrace ./vulnerable'})
<< bash: line 1: ltrace: command not found
[exit=127 cwd=/app timed_out=false backend=harbor-env]
>> ShellSession({'command': 'cat /proc/self/maps'})
<< b49a800a0000-b49a800a9000 r-xp 00000000 00:8d 14418151                   /usr/bin/cat
b49a800bf000-b49a800c0000 r--p 0000f000 00:8d 14418151                   /usr/bin/cat
b49a800c0000-b49a800c1000 rw-p 00010000 00:8d 14418151                   /usr/bin/cat
b49a8ac46000-b49a8ac67000 rw-p 00000000 00:00 0                          [heap]
f8522bc8e000-f8522bcb0000 rw-p 00000000 00:00 0 
f8522bcb0000-
>> ShellSession({'command': 'nm vulnerable'})
<< nm: vulnerable: no symbols
[exit=0 cwd=/app timed_out=false backend=harbor-env]
>> ShellSession({'command': 'objdump -d vulnerable | head -n 50'})
<< 
vulnerable:     file format elf64-littleaarch64

  [... 1 duplicate line(s) collapsed ...]
Disassembly of section .init:

0000000000400620 <.init>:
  400620:	d503201f 	nop
  400624:	a9bf7bfd 	stp	x29, x30, [sp, #-16]!
  400628:	910003fd 	mov	x29, sp
  40062c:	94000056 	bl	400784 <gets@plt+0xa4>
  400630:	a8c17bfd 	ldp	x29, x30, [sp], #16
  400634:	d65f03c0 	ret

Disassembly of section .plt:

0000
>> ShellSession({'command': 'objdump -d vulnerable | grep -A 50 "Disassembly of section .text"'})
<< Disassembly of section .text:

0000000000400700 <.text>:
  400700:	a9bf7bfd 	stp	x29, x30, [sp, #-16]!
  400704:	90000000 	adrp	x0, 400000 <exit@plt-0x660>
  400708:	912a6000 	add	x0, x0, #0xa98
  40070c:	910003fd 	mov	x29, sp
  400710:	97ffffe4 	bl	4006a0 <puts@plt>
  400714:	90000000 	adrp	x0, 400000 <exit@plt-0x660>
  400718:	912b0000 	add	x0, x0, #0xac0
  40071c:	97ffffe1 	bl	4006a0 <puts@plt>
>> ShellSession({'command': 'objdump -d vulnerable | grep -A 100 "Disassembly of section .text"'})
<< Disassembly of section .text:

0000000000400700 <.text>:
  400700:	a9bf7bfd 	stp	x29, x30, [sp, #-16]!
  400704:	90000000 	adrp	x0, 400000 <exit@plt-0x660>
  400708:	912a6000 	add	x0, x0, #0xa98
  40070c:	910003fd 	mov	x29, sp
  400710:	97ffffe4 	bl	4006a0 <puts@plt>
  400714:	90000000 	adrp	x0, 400000 <exit@plt-0x660>
  400718:	912b0000 	add	x0, x0, #0xac0
  40071c:	97ffffe1 	bl	4006a0 <puts@plt>
>> ShellSession({'command': 'objdump -d vulnerable | grep -A 20 "400850"'})
<<   400850:	a9bf7bfd 	stp	x29, x30, [sp, #-16]!
  400854:	52800001 	mov	w1, #0x0                   	// #0
  400858:	52800003 	mov	w3, #0x0                   	// #0
  40085c:	910003fd 	mov	x29, sp
  400860:	52800002 	mov	w2, #0x0                   	// #0
  400864:	52800000 	mov	w0, #0x0                   	// #0
  400868:	97ffff92 	bl	4006b0 <ptrace@plt>
  40086c:	aa0003e1 	mov	x1, x0
  400870:	528000
>> ShellSession({'command': 'objdump -d vulnerable | grep -A 50 "4008a0"'})
<<   4008a0:	a9af7bfd 	stp	x29, x30, [sp, #-272]!
  4008a4:	52800003 	mov	w3, #0x0                   	// #0
  4008a8:	52800002 	mov	w2, #0x0                   	// #0
  4008ac:	910003fd 	mov	x29, sp
  4008b0:	52800001 	mov	w1, #0x0                   	// #0
  4008b4:	52800000 	mov	w0, #0x0                   	// #0
  4008b8:	97ffff7e 	bl	4006b0 <ptrace@plt>
  4008bc:	b100041f 	cmn	x0, #0x1
  4008c0:	540
>> ShellSession({'command': 'objdump -d vulnerable | grep -A 50 "4007a0"'})
<<   4007a0:	90000100 	adrp	x0, 420000 <gets@plt+0x1f920>
  4007a4:	91022000 	add	x0, x0, #0x88
  4007a8:	90000101 	adrp	x1, 420000 <gets@plt+0x1f920>
  4007ac:	91022021 	add	x1, x1, #0x88
  4007b0:	eb00003f 	cmp	x1, x0
  4007b4:	540000c0 	b.eq	4007cc <gets@plt+0xec>  // b.none
  4007b8:	f00000e1 	adrp	x1, 41f000 <gets@plt+0x1e920>
  4007bc:	f947e421 	ldr	x1, [x1, #4040]
  4007c0:	b4000061 	cbz	x1, 4
>> ShellSession({'command': 'objdump -d vulnerable | grep -A 50 "4008e0"'})
<<   4008e0:	7101081f 	cmp	w0, #0x42
  4008e4:	54000320 	b.eq	400948 <gets@plt+0x268>  // b.none
  4008e8:	910180c6 	add	x6, x6, #0x60
  4008ec:	910043e1 	add	x1, sp, #0x10
  4008f0:	d2800022 	mov	x2, #0x1                   	// #1
  4008f4:	52800847 	mov	w7, #0x42                  	// #66
  4008f8:	8b020024 	add	x4, x1, x2
  4008fc:	aa0203e5 	mov	x5, x2
  400900:	91000442 	add	x2, x2, #0x1
  400904:	
>> ShellSession({'command': 'objdump -d vulnerable | grep -A 30 "400954"'})
<<   40072c:	9400008a 	bl	400954 <gets@plt+0x274>
  400730:	52800000 	mov	w0, #0x0                   	// #0
  400734:	a8c17bfd 	ldp	x29, x30, [sp], #16
  400738:	d65f03c0 	ret
  40073c:	d503201f 	nop
  400740:	d503201f 	nop
  400744:	d280001d 	mov	x29, #0x0                   	// #0
  400748:	d280001e 	mov	x30, #0x0                   	// #0
  40074c:	aa0003e5 	mov	x5, x0
  400750:	f94003e1 	ldr	x1, [s
>> ShellSession({'command': 'objdump -d vulnerable | grep -A 50 "400954" | grep -B 20 "400954"'})
<<   40072c:	9400008a 	bl	400954 <gets@plt+0x274>
--
  4007ac:	91022021 	add	x1, x1, #0x88
  4007b0:	eb00003f 	cmp	x1, x0
  4007b4:	540000c0 	b.eq	4007cc <gets@plt+0xec>  // b.none
  4007b8:	f00000e1 	adrp	x1, 41f000 <gets@plt+0x1e920>
  4007bc:	f947e421 	ldr	x1, [x1, #4040]
  4007c0:	b4000061 	cbz	x1, 4007cc <gets@plt+0xec>
  4007c4:	aa0103f0 	mov	x16, x1
  4007c8:	d61f0200 	br	x16
  4007cc:	d65f03c
>> ShellSession({'command': 'objdump -d vulnerable | grep -A 50 "4008a0" | grep -B 50 "4008a0"'})
<<   4008a0:	a9af7bfd 	stp	x29, x30, [sp, #-272]!
--
  4008a8:	52800002 	mov	w2, #0x0                   	// #0
  4008ac:	910003fd 	mov	x29, sp
  4008b0:	52800001 	mov	w1, #0x0                   	// #0
  4008b4:	52800000 	mov	w0, #0x0                   	// #0
  4008b8:	97ffff7e 	bl	4006b0 <ptrace@plt>
  4008bc:	b100041f 	cmn	x0, #0x1
  4008c0:	540003a0 	b.eq	400934 <gets@plt+0x254>  // b.none
  4008c4

=== pi notifications (1) ===
[info] little-coder scaffold loaded
