=== assistant text ===


>> ShellSession({'command': 'ls -R /app'})
<< /app:
doom.wad
doomgeneric
doomgeneric_mips

/app/doomgeneric:
LICENSE
README.TXT
README.md
doomgeneric
doomgeneric.sln
screenshots

/app/doomgeneric/doomgeneric:
Makefile
Makefile.djgpp
Makefile.emscripten
Makefile.freebsd
Makefile.sdl
Makefile.soso
Makefile.sosox
am_map.c
am_map.h
build
config.h
d_englsh.h
d_event.c
d_event.h
d_items.c
d_items.h
d_iwad.c
d_iwad.h
d_loop.c
d_loop.h
d_main.c
d_mai
>> ShellSession({'command': 'readelf -h /app/doomgeneric_mips'})
<< ELF Header:
  Magic:   7f 45 4c 46 01 01 01 00 01 00 00 00 00 00 00 00 
  Class:                             ELF32
  Data:                              2's complement, little endian
  Version:                           1 (current)
  OS/ABI:                            UNIX - System V
  ABI Version:                       1
  Type:                              EXEC (Executable file)
  Machine:       
>> ShellSession({'command': 'readelf -l /app/doomgeneric_mips'})
<< 
Elf file type is EXEC (Executable file)
Entry point 0x400110
There are 5 program headers, starting at offset 52

Program Headers:
  Type           Offset   VirtAddr   PhysAddr   FileSiz MemSiz  Flg Align
  ABIFLAGS       0x0000d8 0x004000d8 0x004000d8 0x00018 0x00018 R   0x8
  REGINFO        0x0000f0 0x004000f0 0x004000f0 0x00018 0x00018 R   0x4
  LOAD           0x000000 0x00400000 0x00400000 0x5
>> ShellSession({'command': 'objdump -D /app/doomgeneric_mips | head -n 100'})
<< objdump: can't disassemble for architecture UNKNOWN!

  [... 1 duplicate line(s) collapsed ...]
/app/doomgeneric_mips:     file format elf32-little
[exit=0 cwd=/app timed_out=false backend=harbor-env]
>> ShellSession({'command': 'apt-get update && apt-get install -y binutils-mips-linux-gnu'})
<< Hit:1 http://deb.debian.org/debian bookworm InRelease
Get:2 http://deb.debian.org/debian bookworm-updates InRelease [55.4 kB]
Get:3 http://deb.debian.org/debian-security bookworm-security InRelease [48.0 kB]
Get:4 http://deb.debian.org/debian-security bookworm-security/main arm64 Packages [300 kB]
Fetched 403 kB in 0s (1228 kB/s)
Reading package lists...
  [... 1 duplicate line(s) collapsed ...]
B
>> ShellSession({'command': 'mips-linux-gnu-objdump -D /app/doomgeneric_mips | head -n 100'})
<< 
/app/doomgeneric_mips:     file format elf32-tradlittlemips

  [... 1 duplicate line(s) collapsed ...]
Disassembly of section .MIPS.abiflags:

004000d8 <.MIPS.abiflags>:
  4000d8:	02200000 	.word	0x2200000
  4000dc:	01000101 	.word	0x1000101
	...

Disassembly of section .reginfo:

004000f0 <.reginfo>:
  4000f0:	80000000 	lb	zero,0(zero)
	...
  400104:	0047d090 	.word	0x47d090

Disassembly of sect
>> ShellSession({'command': 'mips-linux-gnu-objdump -D /app/doomgeneric_mips | grep -A 20 "<__start>:"'})
<< 00400110 <__start>:
  400110:	27bdffe8 	addiu	sp,sp,-24
  400114:	afbf0014 	sw	ra,20(sp)
  400118:	24040000 	li	a0,0
  40011c:	0c10e558 	jal	439560 <doomgeneric_Create>
  400120:	24050000 	li	a1,0
  400124:	0c100fbc 	jal	403ef0 <doomgeneric_Tick>
  400128:	00000000 	nop
  40012c:	08100049 	j	400124 <__start+0x14>
  400130:	00000000 	nop
	...

00400140 <I_InitTimidityConfig>:
  400140:	03e00008 	jr
>> ShellSession({'command': 'mips-linux-gnu-nm /app/doomgeneric_mips'})
<< 00402548 T AM_Drawer
00400a78 T AM_LevelInit
00400c7c T AM_Responder
004751cc b AM_Responder.bigstate
004751d0 b AM_Responder.buffer
00400b54 T AM_Start
00466758 d AM_Start.lastepisode
00466754 d AM_Start.lastlevel
00400b1c T AM_Stop
00466740 d AM_Stop.st_notify
00401468 T AM_Ticker
00400200 T AM_activateNewScale
00400454 T AM_addMark
00400670 T AM_changeWindowLoc
004011d8 T AM_changeWindowScale
0
>> ShellSession({'command': 'mips-linux-gnu-objdump -D /app/doomgeneric_mips | grep -A 20 "<doomgeneric_Create>:"'})
<< 00439560 <doomgeneric_Create>:
  439560:	27bdffe8 	addiu	sp,sp,-24
  439564:	afbf0014 	sw	ra,20(sp)
  439568:	3c010048 	lui	at,0x48
  43956c:	ac25c944 	sw	a1,-14012(at)
  439570:	3c010048 	lui	at,0x48
  439574:	0c103b8e 	jal	40ee38 <M_FindResponseFile>
  439578:	ac24c940 	sw	a0,-14016(at)
  43957c:	3c01000f 	lui	at,0xf
  439580:	0c10e65c 	jal	439970 <malloc>
  439584:	3424a000 	ori	a0,at,0xa000
  
>> ShellSession({'command': 'mips-linux-gnu-objdump -D /app/doomgeneric_mips | grep -A 20 "<doomgeneric_Tick>:"'})
<< 00403ef0 <doomgeneric_Tick>:
  403ef0:	27bdffe8 	addiu	sp,sp,-24
  403ef4:	afbf0014 	sw	ra,20(sp)
  403ef8:	0c10e4a9 	jal	4392a4 <I_StartFrame>
  403efc:	00000000 	nop
  403f00:	0c100c9d 	jal	403274 <TryRunTics>
  403f04:	00000000 	nop
  403f08:	3c010048 	lui	at,0x48
  403f0c:	8c21b554 	lw	at,-19116(at)
  403f10:	00011140 	sll	v0,at,0x5
  403f14:	00010a00 	sll	at,at,0x8
  403f18:	00220821 	addu	at
>> ShellSession({'command': 'mips-linux-gnu-objdump -D /app/doomgeneric_mips | grep -A 20 "<I_StartFrame>:"'})
<< 004392a4 <I_StartFrame>:
  4392a4:	03e00008 	jr	ra
  4392a8:	00000000 	nop

004392ac <I_StartTic>:
  4392ac:	27bdffe8 	addiu	sp,sp,-24
  4392b0:	afbf0014 	sw	ra,20(sp)
  4392b4:	0c10e37c 	jal	438df0 <I_GetEvent>
  4392b8:	00000000 	nop
  4392bc:	8fbf0014 	lw	ra,20(sp)
  4392c0:	03e00008 	jr	ra
  4392c4:	27bd0018 	addiu	sp,sp,24

004392c8 <I_UpdateNoBlit>:
  4392c8:	03e00008 	jr	ra
  4392cc:	000000
>> ShellSession({'command': 'mips-linux-gnu-objdump -D /app/doomgeneric_mips | grep -A 20 "<doomgeneric_Create>:" -B 20'})
<< 00439538 <I_SetGrabMouseCallback>:
  439538:	03e00008 	jr	ra
  43953c:	00000000 	nop

00439540 <I_EnableLoadingDisk>:
  439540:	03e00008 	jr	ra
  439544:	00000000 	nop

00439548 <I_BindVideoVariables>:
  439548:	03e00008 	jr	ra
  43954c:	00000000 	nop

00439550 <I_DisplayFPSDots>:
  439550:	03e00008 	jr	ra
  439554:	00000000 	nop

00439558 <I_CheckIsScreensaver>:
  439558:	03e00008 	jr	ra
  43955c
>> ShellSession({'command': 'mips-linux-gnu-objdump -D /app/doomgeneric_mips | grep -A 20 "<DG_Init>:"'})
<< 004395b0 <DG_Init>:
  4395b0:	27bdffe8 	addiu	sp,sp,-24
  4395b4:	afbf0014 	sw	ra,20(sp)
  4395b8:	3c01004b 	lui	at,0x4b
  4395bc:	24050000 	li	a1,0
  4395c0:	24060020 	li	a2,32
  4395c4:	0c10e6b1 	jal	439ac4 <memset>
  4395c8:	24240a58 	addiu	a0,at,2648
  4395cc:	3c010045 	lui	at,0x45
  4395d0:	0c10e64e 	jal	439938 <printf>
  4395d4:	242463f4 	addiu	a0,at,25588
  4395d8:	8fbf0014 	lw	ra,20(sp)
  
>> ShellSession({'command': 'mips-linux-gnu-objdump -D /app/doomgeneric_mips | grep -A 20 "<DG_DrawFrame>:"'})
<< 004395e4 <DG_DrawFrame>:
  4395e4:	27bdffd8 	addiu	sp,sp,-40
  4395e8:	afbf0024 	sw	ra,36(sp)
  4395ec:	afb30020 	sw	s3,32(sp)
  4395f0:	afb2001c 	sw	s2,28(sp)
  4395f4:	afb10018 	sw	s1,24(sp)
  4395f8:	afb00014 	sw	s0,20(sp)
  4395fc:	3c01004b 	lui	at,0x4b
  439600:	3c04cccc 	lui	a0,0xcccc
  439604:	8c220a50 	lw	v0,2640(at)
  439608:	24430001 	addiu	v1,v0,1
  43960c:	ac230a50 	sw	v1,2640(at)
  43
>> ShellSession({'command': 'mips-linux-gnu-objdump -D /app/doomgeneric_mips | grep -A 50 "<DG_DrawFrame>:"'})
<< 004395e4 <DG_DrawFrame>:
  4395e4:	27bdffd8 	addiu	sp,sp,-40
  4395e8:	afbf0024 	sw	ra,36(sp)
  4395ec:	afb30020 	sw	s3,32(sp)
  4395f0:	afb2001c 	sw	s2,28(sp)
  4395f4:	afb10018 	sw	s1,24(sp)
  4395f8:	afb00014 	sw	s0,20(sp)
  4395fc:	3c01004b 	lui	at,0x4b
  439600:	3c04cccc 	lui	a0,0xcccc
  439604:	8c220a50 	lw	v0,2640(at)
  439608:	24430001 	addiu	v1,v0,1
  43960c:	ac230a50 	sw	v1,2640(at)
  43
>> ShellSession({'command': 'mips-linux-gnu-objdump -D /app/doomgeneric_mips | grep -A 20 "<malloc>:"'})
<< 00439970 <malloc>:
  439970:	27bdffe8 	addiu	sp,sp,-24
  439974:	afbf0014 	sw	ra,20(sp)
  439978:	10800048 	beqz	a0,439a9c <malloc+0x12c>
  43997c:	00000000 	nop
  439980:	2c810081 	sltiu	at,a0,129
  439984:	10200041 	beqz	at,439a8c <malloc+0x11c>
  439988:	00000000 	nop
  43998c:	3c01404b 	lui	at,0x404b
  439990:	9021178c 	lbu	at,6028(at)
  439994:	1420002c 	bnez	at,439a48 <malloc+0xd8>
  439998:
>> ShellSession({'command': 'mips-linux-gnu-objdump -D /app/doomgeneric_mips | grep -A 20 "<printf>:"'})
<< 00439938 <printf>:
  439938:	27bdfff8 	addiu	sp,sp,-8
  43993c:	afbf0004 	sw	ra,4(sp)
  439940:	afa70014 	sw	a3,20(sp)
  439944:	afa60010 	sw	a2,16(sp)
  439948:	afa5000c 	sw	a1,12(sp)
  43994c:	27a5000c 	addiu	a1,sp,12
  439950:	24060000 	li	a2,0
  439954:	24070000 	li	a3,0
  439958:	24080000 	li	t0,0
  43995c:	0c10eb37 	jal	43acdc <vprintf_internal>
  439960:	afa50000 	sw	a1,0(sp)
  439964:	8fbf
>> ShellSession({'command': 'mips-linux-gnu-objdump -D /app/doomgeneric_mips | grep -A 20 "<vprintf_internal>:"'})
<< 0043acdc <vprintf_internal>:
  43acdc:	27bdff78 	addiu	sp,sp,-136
  43ace0:	afbf0084 	sw	ra,132(sp)
  43ace4:	afbe0080 	sw	s8,128(sp)
  43ace8:	afb7007c 	sw	s7,124(sp)
  43acec:	afb60078 	sw	s6,120(sp)
  43acf0:	afb50074 	sw	s5,116(sp)
  43acf4:	afb40070 	sw	s4,112(sp)
  43acf8:	afb3006c 	sw	s3,108(sp)
  43acfc:	afb20068 	sw	s2,104(sp)
  43ad00:	afb10064 	sw	s1,100(sp)
  43ad04:	afb00060 	sw	s0,96
>> ShellSession({'command': 'mips-linux-gnu-objdump -D /app/doomgeneric_mips | grep -A 20 "<M_FindResponseFile>:"'})
<< 0040ee38 <M_FindResponseFile>:
  40ee38:	03e00008 	jr	ra
  40ee3c:	00000000 	nop

0040ee40 <M_GetExecutableName>:
  40ee40:	27bdffe8 	addiu	sp,sp,-24
  40ee44:	afbf0014 	sw	ra,20(sp)
  40ee48:	afb00010 	sw	s0,16(sp)
  40ee4c:	3c100048 	lui	s0,0x48
  40ee50:	8e01c944 	lw	at,-14012(s0)
  40ee54:	8c240000 	lw	a0,0(at)
  40ee58:	0c10e890 	jal	43a240 <strrchr>
  40ee5c:	2405002f 	li	a1,47
  40ee60:	104
>> ShellSession({'command': 'mips-linux-gnu-objdump -D /app/doomgeneric_mips | grep -A 20 "<strrchr>:"'})
<< 0043a240 <strrchr>:
  43a240:	7c051c20 	seb	v1,a1
  43a244:	24020000 	li	v0,0
  43a248:	80810000 	lb	at,0(a0)
  43a24c:	00612826 	xor	a1,v1,at
  43a250:	0085100a 	movz	v0,a0,a1
  43a254:	1420fffc 	bnez	at,43a248 <strrchr+0x8>
  43a258:	24840001 	addiu	a0,a0,1
  43a25c:	03e00008 	jr	ra
  43a260:	00000000 	nop

0043a264 <strstr>:
  43a264:	24020000 	li	v0,0
  43a268:	00a20821 	addu	at,a1,v0
  43a26c
>> ShellSession({'command': 'mips-linux-gnu-objdump -D /app/doomgeneric_mips | grep -A 20 "<D_DoomMain>:"'})
<< 00404708 <D_DoomMain>:
  404708:	27bdfe10 	addiu	sp,sp,-496
  40470c:	afbf01ec 	sw	ra,492(sp)
  404710:	afb401e8 	sw	s4,488(sp)
  404714:	afb301e4 	sw	s3,484(sp)
  404718:	afb201e0 	sw	s2,480(sp)
  40471c:	afb101dc 	sw	s1,476(sp)
  404720:	afb001d8 	sw	s0,472(sp)
  404724:	3c010040 	lui	at,0x40
  404728:	24050000 	li	a1,0
  40472c:	0c103894 	jal	40e250 <I_AtExit>
  404730:	24245348 	addiu	a0,at,21
>> ShellSession({'command': 'mips-linux-gnu-objdump -D /app/doomgeneric_mips | grep -A 20 "<Z_Init>:"'})
<< 00438400 <Z_Init>:
  438400:	27bdffe8 	addiu	sp,sp,-24
  438404:	afbf0014 	sw	ra,20(sp)
  438408:	0c1038a9 	jal	40e2a4 <I_ZoneBase>
  43840c:	27a40010 	addiu	a0,sp,16
  438410:	3c01004b 	lui	at,0x4b
  438414:	24430020 	addiu	v1,v0,32
  438418:	8fa40010 	lw	a0,16(sp)
  43841c:	24050001 	li	a1,1
  438420:	8fbf0014 	lw	ra,20(sp)
  438424:	ac2205d0 	sw	v0,1488(at)
  438428:	24410004 	addiu	at,v0,4
  4
>> ShellSession({'command': 'cat <<\'EOF\' > /app/vm.js\nconst fs = require(\'fs\');\nconst path = require(\'path\');\n\nclass MipsVM {\n    constructor(elfPath) {\n        this.elfPath = elfPath;\n        this.memory = new Uint8Array(0x1000000); // 16MB\n        this.registers = new Int32Array(32);\n        this.pc = 0;\n        this.running = true;\n        this.files = new Map(); // Simple file system simulation\n        this.loadElf();\n    }\n\n    loadElf() {\n        const fd = fs.openSync(this.elfPath, \'r\');\n        const stat = fs.fstatSync(fd);\n        const buffer = Buffer.alloc(stat.size);\n        fs.readSync(fd, buffer, 0, stat.size, 0);\n        fs.closeSync(fd);\n\n        // Very basic ELF parser for this specific binary\n        // We know it\'s ELF32 little endian, MIPS R3000\n        // Header is 52 bytes\n        const entryPoint = buffer.readUInt32LE(0x18);\n        this.pc = entryPoint;\n\n        // Program headers\n        let offset = 52;\n        while (offset < buffer.length) {\n            const type = buffer.readUInt32LE(offset);\n            const pOffset = buffer.readUInt32LE(offset + 4);\n            const pVirtAddr = buffer.readUInt32LE(offset + 8);\n            const pFileSize = buffer.readUInt32LE(offset + 16);\n            const pMemSize = buffer.readUInt32LE(offset + 20);\n            const pFlags = buffer.readUInt32LE(offset + 24);\n            const pAlign = buffer.readUInt32LE(offset + 28);\n\n            if (type === 1) { // PT_LOAD\n                for (let i = 0; i < pFileSize; i++) {\n                    this.memory[pVirtAddr + i] = buffer[pOffset + i];\n                }\n            }\n            \n            if (pFileSize === 0 && pMemSize === 0) break; // End of headers\n            offset += 32;\n            if (offset >= buffer.length) break;\n        }\n        \n        // Note: This is a very naive loader. Real ELF parsing is complex.\n        // For this task, we assume the LOAD segments are correctly mapped.\n        // We\'ll use the entry point from the ELF header.\n        console.log(`Loaded ELF. Entry point: 0x${entryPoint.toString(16)}`);\n    }\n\n    readMem(addr) {\n        return this.memory[addr];\n    }\n\n    writeMem(addr, val) {\n        this.memory[addr] = val;\n    }\n\n    // Simplified instruction fetch and decode\n    step() {\n        const instr = this.memory.readUInt32LE(this.pc);\n        const op = (instr >>> 26) & 0x3F;\n        \n        // This is where we\'d implement the full MIPS ISA.\n        // Given the complexity, we might need a more robust approach or \n        // use an existing library if possible, but we must write it.\n        // However, writing a full MIPS interpreter in one go is huge.\n        \n        // Let\'s try to find a way to run it.\n        // Since I cannot use external libraries easily without installing,\n        // and writing a full MIPS emulator is a massive task,\n        // I will focus on the core requirements: syscalls and file I/O.\n    }\n}\n\n// Since I cannot implement a full MIPS emulator in a single turn,\n// I will use a strategy: I\'ll look for a way to run MIPS in Node.js\n// or implement a minimal one that handles the specific instructions\n// seen in the disassembly.\n\n// Actually, the task asks me to "implement a MIPS interpreter".\n// This is a very large task. Let\'s see if there\'s a simpler way.\n// Maybe I can use a library like \'qemu\' via shell? No, the task says "implement ... vm.js".\n\n// Let\'s try to implement a basic loop and handle the most common instructions.\n// But wait, the binary is quite large.\n\n// Let\'s reconsider. Is there any other way?\n// I\'ll start by implementing the basic structure and the syscalls.\nEOF\n'})
<< bash: line 96: warning: here-document at line 1 delimited by end-of-file (wanted `EOF')
bash: -c: line 97: syntax error: unexpected end of file

[exit=2 cwd=/app timed_out=false backend=harbor-env]
>> ShellSession({'command': 'cat <<\'EOF\' > /app/vm.js\nconst fs = require(\'fs\');\nconst path = require(\'path\');\n\nclass MipsVM {\n    constructor(elfPath) {\n        this.elfPath = elfPath;\n        this.memory = new Uint8Array(0x1000000); // 16MB\n        this.registers = new Int32Array(32);\n        this.pc = 0;\n        this.running = true;\n        this.files = new Map();\n        this.loadElf();\n    }\n\n    loadElf() {\n        const fd = fs.openSync(this.elfPath, \'r\');\n        const stat = fs.fstatSync(fd);\n        const buffer = Buffer.alloc(stat.size);\n        fs.readSync(fd, buffer, 0, stat.size, 0);\n        fs.closeSync(fd);\n\n        const entryPoint = buffer.readUInt32LE(0x18);\n        this.pc = entryPoint;\n\n        let offset = 52;\n        while (offset < buffer.length) {\n            const type = buffer.readUInt32LE(offset);\n            const pOffset = buffer.readUInt32LE(offset + 4);\n            const pVirtAddr = buffer.readUInt32LE(offset + 8);\n            const pFileSize = buffer.readUInt32LE(offset + 16);\n            const pMemSize = buffer.readUInt32LE(offset + 20);\n            const pFlags = buffer.readUInt32LE(offset + 24);\n            const pAlign = buffer.readUInt32LE(offset + 28);\n\n            if (type === 1) { // PT_LOAD\n                for (let i = 0; i < pFileSize; i++) {\n                    this.memory[pVirtAddr + i] = buffer[pOffset + i];\n                }\n            }\n            \n            if (pFileSize === 0 && pMemSize === 0) break;\n            offset += 32;\n            if (offset >= buffer.length) break;\n        }\n        console.log(`Loaded ELF. Entry point: 0x${entryPoint.toString(16)}`);\n    }\n\n    read32(addr) {\n        return (this.memory[addr] & 0xFF) |\n               ((this.memory[addr + 1] & 0xFF) << 8) |\n               ((this.memory[addr + 2] & 0xFF) << 16) |\n               ((this.memory[addr + 3] & 0xFF) << 24);\n    }\n\n    write32(addr, val) {\n        this.memory[addr] = val & 0xFF;\n        this.memory[addr + 1] = (val >> 8) & 0xFF;\n        this.memory[addr + 2] = (val >> 16) & 0xFF;\n        this.memory[addr + 3] = (val >> 24) & 0xFF;\n    }\n\n    run() {\n        // This is a placeholder. A real MIPS interpreter is too large for this format.\n        // I will implement a very basic one that can handle the entry point and \n        // the first few instructions to show progress.\n        console.log("Starting VM...");\n        // For the sake of the task, I\'ll simulate the execution of the first few instructions\n        // or use a more advanced approach if I can.\n        // But since I must "implement" it, I\'ll provide a skeleton that \n        // would be expanded.\n    }\n}\n\nconst vm = new MipsVM(\'/app/doomgeneric_mips\');\nvm.run();\nEOF\nnode /app/vm.js\n'})
<< Loaded ELF. Entry point: 0x400110
Starting VM...
[exit=0 cwd=/app timed_out=false backend=harbor-env]
>> ShellSession({'command': 'mips-linux-gnu-objdump -D /app/doomgeneric_mips | grep -A 50 "<__start>:"'})
<< 00400110 <__start>:
  400110:	27bdffe8 	addiu	sp,sp,-24
  400114:	afbf0014 	sw	ra,20(sp)
  400118:	24040000 	li	a0,0
  40011c:	0c10e558 	jal	439560 <doomgeneric_Create>
  400120:	24050000 	li	a1,0
  400124:	0c100fbc 	jal	403ef0 <doomgeneric_Tick>
  400128:	00000000 	nop
  40012c:	08100049 	j	400124 <__start+0x14>
  400130:	00000000 	nop
	...

00400140 <I_InitTimidityConfig>:
  400140:	03e00008 	jr
>> ShellSession({'command': "cat <<'EOF' > /app/vm.js\nconst fs = require('fs');\n\nclass MipsVM {\n    constructor(elfPath) {\n        this.elfPath = elfPath;\n        this.memory = new Uint8Array(0x1000000);\n        this.registers = new Int32Array(32);\n        this.pc = 0;\n        this.running = true;\n        this.loadElf();\n    }\n\n    loadElf() {\n        const fd = fs.openSync(this.elfPath, 'r');\n        const stat = fs.fstatSync(fd);\n        const buffer = Buffer.alloc(stat.size);\n        fs.readSync(fd, buffer, 0, stat.size, 0);\n        fs.closeSync(fd);\n\n        const entryPoint = buffer.readUInt32LE(0x18);\n        this.pc = entryPoint;\n\n        let offset = 52;\n        while (offset < buffer.length) {\n            const type = buffer.readUInt32LE(offset);\n            const pOffset = buffer.readUInt32LE(offset + 4);\n            const pVirtAddr = buffer.readUInt32LE(offset + 8);\n            const pFileSize = buffer.readUInt32LE(offset + 16);\n            const pMemSize = buffer.readUInt32LE(offset + 20);\n            const pFlags = buffer.readUInt32LE(offset + 24);\n            const pAlign = buffer.readUInt32LE(offset + 28);\n\n            if (type === 1) { // PT_LOAD\n                for (let i = 0; i < pFileSize; i++) {\n                    this.memory[pVirtAddr + i] = buffer[pOffset + i];\n                }\n            }\n            if (type === 0) break; // NULL\n            offset += 32;\n            if (offset >= buffer.length) break;\n        }\n        console.log(`Loaded ELF. Entry point: 0x${entryPoint.toString(16)}`);\n    }\n\n    read32(addr) {\n        return (this.memory[addr] & 0xFF) |\n               ((this.memory[addr + 1] & 0xFF) << 8) |\n               ((this.memory[addr + 2] & 0xFF) << 16) |\n               ((this.memory[addr + 3] & 0xFF) << 24);\n    }\n\n    write32(addr, val) {\n        this.memory[addr] = val & 0xFF;\n        this.memory[addr + 1] = (val >> 8) & 0xFF;\n        this.memory[addr + 2] = (val >> 16) & 0xFF;\n        this.memory[addr + 3] = (val >> 24) & 0xFF;\n    }\n\n    step() {\n        const instr = this.read32(this.pc);\n        const op = (instr >>> 26) & 0x3F;\n        const rs = (instr >>> 21) & 0x1F;\n        const rt = (instr >>> 16) & 0x1F;\n        const rd = (instr >>> 11) & 0x1F;\n        const sa = (instr >>> 6) & 0x1F;\n        const shamt = (instr >>> 10) & 0x05;\n        const funct = instr & 0x3F;\n        const immed = instr << 6 >> 16; // Sign extend 16-bit\n\n        // This is a very minimal instruction set to get through the first few instructions\n        // and handle syscalls.\n        \n        // Opcode 0: R-type\n        if (op === 0) {\n            switch (funct) {\n                case 0x21: // add\n                    this.registers[rd] = this.registers[rs] + this.registers[rt];\n                    this.pc += 4;\n                    break;\n                case 0x23: // subu\n                    this.registers[rd] = this.registers[rs] - this.registers[rt];\n                    this.pc += 4;\n                    break;\n                case 0x00: // nop\n                    this.pc += 4;\n                    break;\n                case 0x08: // sll\n                    this.registers[rd] = this.registers[rt] << shamt;\n                    this.pc += 4;\n                    break;\n                case 0x24: // jr\n                    this.pc = this.registers[rs];\n                    break;\n                default:\n                    // For now, just skip unknown R-types\n                    this.pc += 4;\n            }\n        } \n        // Opcode 8: addiu\n        else if (op === 8) {\n            this.registers[rt] = this.registers[rs] + immed;\n            this.pc += 4;\n        }\n        // Opcode 9: addiu (wait, addiu is 8, let's check)\n        // Actually, addiu is 001000 (8)\n        // Opcode 4: ori\n        else if (op === 4) {\n            this.registers[rt] = this.registers[rs] | (immed & 0xFFFF);\n            this.pc += 4;\n        }\n        // Opcode 2: li (actually li is often just addiu or ori)\n        // Opcode 15: jal\n        else if (op === 15) {\n            const target = (instr << 6 >> 26) << 26 | (instr & 0x03FFFFFF); // This is wrong for jal\n            // Correct jal: target is instr[25:0] shifted left by 2\n            const targetAddr = (instr & 0x03FFFFFF) << 2;\n            this.registers[31] = this.pc + 4;\n            this.pc = targetAddr;\n        }\n        // Opcode 1: beq\n        else if (op === 1) {\n            const targetAddr = this.pc + ((immed & 0xFFFF) << 2);\n            if (this.registers[rs] === this.registers[rt]) {\n                this.pc = targetAddr;\n            } else {\n                this.pc += 4;\n            }\n        }\n        // Opcode 10: jalr\n        else if (op === 10) {\n            this.registers[31] = this.pc + 4;\n            this.pc = this.registers[rs];\n        }\n        // Opcode 11: jr (wait, jr is R-type funct 0x08)\n        // Opcode 12: lu (lui)\n        else if (op === 12) {\n            this.registers[rt] = (immed & 0xFFFF) << 16;\n            this.pc += 4;\n        }\n        // Opcode 13: bu (not common)\n        // Opcode 14: lu (not common)\n        // Opcode 16: sw (store word)\n        else if (op === 16) {\n            const offset = immed;\n            const addr = this.registers[rs] + offset;\n            this.write32(addr, this.registers[rt]);\n            this.pc += 4;\n        }\n        // Opcode 17: lw (load word)\n        else if (op === 17) {\n            const offset = immed;\n            const addr = this.registers[rs] + offset;\n            this.registers[rt] = this.read32(addr);\n            this.pc += 4;\n        }\n        // Opcode 18: sb (store byte)\n        else if (op === 18) {\n            const offset = immed;\n            const addr = this.registers[rs] + offset;\n            this.memory[addr] = this.registers[rt] & 0xFF;\n            this.pc += 4;\n        }\n        // Opcode 19: lb (load byte)\n        else if (op === 19) {\n            const offset = immed;\n            const addr = this.registers[rs] + offset;\n            let val = this.memory[addr];\n            if (val & 0x80) val |= 0xFFFFFF00;\n            this.registers[rt] = val;\n            this.pc += 4;\n        }\n        // Opcode 20: beq (wait, beq is 1)\n        // Opcode 21: bne\n        else if (op === 21) {\n            const targetAddr = this.pc + ((immed & 0xFFFF) << 2);\n            if (this.registers[rs] !== this.registers[rt]) {\n                this.pc = targetAddr;\n            } else {\n                this.pc += 4;\n            }\n        }\n        // Opcode 22: jalr (wait, jalr is 10)\n        // Opcode 23: slti\n        else if (op === 23) {\n            this.registers[rt] = (this.registers[rs] < immed) ? 1 : 0;\n            this.pc += 4;\n        }\n        // Opcode 24: sltiu\n        else if (op === 24) {\n            this.registers[rt] = (this.registers[rs] < (immed & 0xFFFF)) ? 1 : 0;\n            this.pc += 4;\n        }\n        // Opcode 25: movn\n        else if (op === 25) {\n            if (this.registers[immed & 0x1F] !== 0) {\n                this.registers[rd] = this.registers[rs];\n            }\n            this.pc += 4;\n        }\n        // Opcode 26: movz\n        else if (op === 26) {\n            if (this.registers[immed & 0x1F] !== 0) {\n                this.registers[rd] = this.registers[rs];\n            }\n            this.pc += 4;\n        }\n        // Opcode 27: move (often just addiu with 0)\n        // Opcode 28: move (often just addiu with 0)\n        // Opcode 29: move (often just addiu with 0)\n        // Opcode 30: move (often just addiu with 0)\n        // Opcode 31: move (often just addiu with 0)\n        // Opcode 32: move (often just addiu with 0)\n        // Opcode 33: move (often just addiu with 0)\n        // Opcode 34: move (often just addiu with 0)\n        // Opcode 35: move (often just addiu with 0)\n        // Opcode 36: move (often just addiu with 0)\n        // Opcode 37: move (often just addiu with 0)\n        // Opcode 38: move (often just addiu with 0)\n        // Opcode 39: move (often just addiu with 0)\n        // Opcode 40: move (often just addiu with 0)\n        // Opcode 41: move (often just addiu with 0)\n        // Opcode 42: move (often just addiu with 0)\n        // Opcode 43: move (often just addiu with 0)\n        // Opcode 44: move (often just addiu with 0)\n        // Opcode 45: move (often just addiu with 0)\n        // Opcode 46: move (often just addiu with 0)\n        // Opcode 47: move (often just addiu with 0)\n        // Opcode 48: move (often just addiu with 0)\n        // Opcode 49: move (often just addiu with 0)\n        // Opcode 50: move (often just addiu with 0)\n        // Opcode 51: move (often just addiu with 0)\n        // Opcode 52: move (often just addiu with 0)\n        // Opcode 53: move (often just addiu with 0)\n        // Opcode 54: move (often just addiu with 0)\n        // Opcode 55: move (often just addiu with 0)\n        // Opcode 56: move (often just addiu with 0)\n        // Opcode 57: move (often just addiu with 0)\n        // Opcode 58: move (often just addiu with 0)\n        // Opcode 59: move (often just addiu with 0)\n        // Opcode 60: move (often just addiu with 0)\n        // Opcode 61: move (often just addiu with 0)\n        // Opcode 62: move (often just addiu with 0)\n        // Opcode 63: move (often just addiu with 0)\n        \n        // Let's add more common ones\n        else if (op === 0 && funct === 0x22) { // subu\n             this.registers[rd] = this.registers[rs] - this.registers[rt];\n             this.pc += 4;\n        }\n        else if (op === 0 && funct === 0x20) { // addu\n             this.registers[rd] = this.registers[rs] + this.registers[rt];\n             this.pc += 4;\n        }\n        else if (op === 0 && funct === 0x25) { // sub\n             this.registers[rd] = this.registers[rs] - this.registers[rt];\n             this.pc += 4;\n        }\n        else if (op === 0 && funct === 0x26) { // div\n             // skip\n             this.pc += 4;\n        }\n        else if (op === 0 && funct === 0x27) { // modu\n             // skip\n             this.pc += 4;\n        }\n        else if (op === 0 && funct === 0x00) { // nop\n             this.pc += 4;\n        }\n        else if (op === 0 && funct === 0x02) { // sll\n             this.registers[rd] = this.registers[rt] << shamt;\n             this.pc += 4;\n        }\n        else if (op === 0 && funct === 0x04) { // srl\n             this.registers[rd] = this.registers[rt] >>> shamt;\n             this.pc += 4;\n        }\n        else if (op === 0 && funct === 0x08) { // jr\n             this.pc = this.registers[rs];\n        }\n        else if (op === 0 && funct === 0x0C) { // jalr\n             this.registers[31] = this.pc + 4;\n             this.pc = this.registers[rs];\n        }\n        else if (op === 0 && funct === 0x10) { // mult\n             // skip\n             this.pc += 4;\n        }\n        else if (op === 0 && funct === 0x11) { // multu\n             // skip\n             this.pc += 4;\n        }\n        else if (op === 0 && funct === 0x12) { // div\n             // skip\n             this.pc += 4;\n        }\n        else if (op === 0 && funct === 0x13) { // divu\n             // skip\n             this.pc += 4;\n        }\n        else if (op === 0 && funct === 0x18) { // mflo\n             this.registers[rd] = this.registers[1]; // simplified\n             this.pc += 4;\n        }\n        else if (op === 0 && funct === 0x19) { // mfhi\n             this.registers[rd] = this.registers[1]; // simplified\n             this.pc += 4;\n        }\n        else if (op === 0 && funct === 0x21) { // addu\n             this.registers[rd] = this.registers[rs] + this.registers[rt];\n             this.pc += 4;\n        }\n        else if (op === 0 && funct === 0x23) { // subu\n             this.registers[rd] = this.registers[rs] - this.registers[rt];\n             this.pc += 4;\n        }\n        else if (op === 0 && funct === 0x25) { // sub\n             this.registers[rd] = this.registers[rs] - this.registers[rt];\n             this.pc += 4;\n        }\n        else if (op === 0 && funct === 0x26) { // div\n             this.pc += 4;\n        }\n        else if (op === 0"})
<< bash: line 324: warning: here-document at line 1 delimited by end-of-file (wanted `EOF')
bash: -c: line 325: syntax error: unexpected end of file

[exit=2 cwd=/app timed_out=false backend=harbor-env]
>> ShellSession({'command': 'cat <<\'EOF\' > /app/vm.js\nconst fs = require(\'fs\');\nconst path = require(\'path\');\n\nclass MipsVM {\n    constructor(elfPath) {\n        this.elfPath = elfPath;\n        this.memory = new Uint8Array(0x1000000);\n        this.registers = new Int32Array(32);\n        this.pc = 0;\n        this.running = true;\n        this.loadElf();\n    }\n\n    loadElf() {\n        const fd = fs.openSync(this.elfPath, \'r\');\n        const stat = fs.fstatSync(fd);\n        const buffer = Buffer.alloc(stat.size);\n        fs.readSync(fd, buffer, 0, stat.size, 0);\n        fs.closeSync(fd);\n\n        const entryPoint = buffer.readUInt32LE(0x18);\n        this.pc = entryPoint;\n\n        let offset = 52;\n        while (offset < buffer.length) {\n            const type = buffer.readUInt32LE(offset);\n            const pOffset = buffer.readUInt32LE(offset + 4);\n            const pVirtAddr = buffer.readUInt32LE(offset + 8);\n            const pFileSize = buffer.readUInt32LE(offset + 16);\n            const pMemSize = buffer.readUInt32LE(offset + 20);\n            const pFlags = buffer.readUInt32LE(offset + 24);\n            const pAlign = buffer.readUInt32LE(offset + 28);\n\n            if (type === 1) { // PT_LOAD\n                for (let i = 0; i < pFileSize; i++) {\n                    this.memory[pVirtAddr + i] = buffer[pOffset + i];\n                }\n            }\n            if (type === 0) break;\n            offset += 32;\n            if (offset >= buffer.length) break;\n        }\n        console.log(`Loaded ELF. Entry point: 0x${entryPoint.toString(16)}`);\n    }\n\n    read32(addr) {\n        if (addr < 0 || addr + 3 >= this.memory.length) return 0;\n        return (this.memory[addr] & 0xFF) |\n               ((this.memory[addr + 1] & 0xFF) << 8) |\n               ((this.memory[addr + 2] & 0xFF) << 16) |\n               ((this.memory[addr + 3] & 0xFF) << 24);\n    }\n\n    write32(addr, val) {\n        if (addr < 0 || addr + 3 >= this.memory.length) return;\n        this.memory[addr] = val & 0xFF;\n        this.memory[addr + 1] = (val >> 8) & 0xFF;\n        this.memory[addr + 2] = (val >> 16) & 0xFF;\n        this.memory[addr + 3] = (val >> 24) & 0xFF;\n    }\n\n    step() {\n        if (this.pc >= this.memory.length) {\n            this.running = false;\n            return;\n        }\n        const instr = this.read32(this.pc);\n        const op = (instr >>> 26) & 0x3F;\n        const rs = (instr >>> 21) & 0x1F;\n        const rt = (instr >>> 16) & 0x1F;\n        const rd = (instr >>> 11) & 0x1F;\n        const sa = (instr >>> 6) & 0x1F;\n        const shamt = (instr >>> 10) & 0x05;\n        const funct = instr & 0x3F;\n        const immed = (instr << 6 >> 16);\n\n        // Opcode 0: R-type\n        if (op === 0) {\n            switch (funct) {\n                case 0x21: // addu\n                    this.registers[rd] = this.registers[rs] + this.registers[rt];\n                    this.pc += 4;\n                    break;\n                case 0x23: // subu\n                    this.registers[rd] = this.registers[rs] - this.registers[rt];\n                    this.pc += 4;\n                    break;\n                case 0x20: // add\n                    this.registers[rd] = this.registers[rs] + this.registers[rt];\n                    this.pc += 4;\n                    break;\n                case 0x25: // sub\n                    this.registers[rd] = this.registers[rs] - this.registers[rt];\n                    this.pc += 4;\n                    break;\n                case 0x00: // nop\n                    this.pc += 4;\n                    break;\n                case 0x02: // sll\n                    this.registers[rd] = this.registers[rt] << shamt;\n                    this.pc += 4;\n                    break;\n                case 0x04: // srl\n                    this.registers[rd] = this.registers[rt] >>> shamt;\n                    this.pc += 4;\n                    break;\n                case 0x08: // jr\n                    this.pc = this.registers[rs];\n                    break;\n                case 0x0C: // jalr\n                    this.registers[31] = this.pc + 4;\n                    this.pc = this.registers[rs];\n                    break;\n                default:\n                    this.pc += 4;\n            }\n        } \n        else if (op === 8) { // addiu\n            this.registers[rt] = this.registers[rs] + immed;\n            this.pc += 4;\n        }\n        else if (op === 4) { // ori\n            this.registers[rt] = this.registers[rs] | (immed & 0xFFFF);\n            this.pc += 4;\n        }\n        else if (op === 15) { // jal\n            const targetAddr = (instr & 0x03FFFFFF) << 2;\n            this.registers[31] = this.pc + 4;\n            this.pc = targetAddr;\n        }\n        else if (op === 1) { // beq\n            const targetAddr = this.pc + ((immed & 0xFFFF) << 2);\n            if (this.registers[rs] === this.registers[rt]) {\n                this.pc = targetAddr;\n            } else {\n                this.pc += 4;\n            }\n        }\n        else if (op === 10) { // jalr\n            this.registers[31] = this.pc + 4;\n            this.pc = this.registers[rs];\n        }\n        else if (op === 12) { // lui\n            this.registers[rt] = (immed & 0xFFFF) << 16;\n            this.pc += 4;\n        }\n        else if (op === 16) { // sw\n            const offset = immed;\n            const addr = this.registers[rs] + offset;\n            this.write32(addr, this.registers[rt]);\n            this.pc += 4;\n        }\n        else if (op === 17) { // lw\n            const offset = immed;\n            const addr = this.registers[rs] + offset;\n            this.registers[rt] = this.read32(addr);\n            this.pc += 4;\n        }\n        else if (op === 18) { // sb\n            const offset = immed;\n            const addr = this.registers[rs] + offset;\n            this.memory[addr] = this.registers[rt] & 0xFF;\n            this.pc += 4;\n        }\n        else if (op === 19) { // lb\n            const offset = immed;\n            const addr = this.registers[rs] + offset;\n            let val = this.memory[addr];\n            if (val & 0x80) val |= 0xFFFFFF00;\n            this.registers[rt] = val;\n            this.pc += 4;\n        }\n        else if (op === 21) { // bne\n            const targetAddr = this.pc + ((immed & 0xFFFF) << 2);\n            if (this.registers[rs] !== this.registers[rt]) {\n                this.pc = targetAddr;\n            } else {\n                this.pc += 4;\n            }\n        }\n        else if (op === 23) { // slti\n            this.registers[rt] = (this.registers[rs] < immed) ? 1 : 0;\n            this.pc += 4;\n        }\n        else if (op === 24) { // sltiu\n            this.registers[rt] = (this.registers[rs] < (immed & 0xFFFF)) ? 1 : 0;\n            this.pc += 4;\n        }\n        else if (op === 25) { // movn\n            if (this.registers[immed & 0x1F] !== 0) {\n                this.registers[rd] = this.registers[rs];\n            }\n            this.pc += 4;\n        }\n        else if (op === 26) { // movz\n            if (this.registers[immed & 0x1F] !== 0) {\n                this.registers[rd] = this.registers[rs];\n            }\n            this.pc += 4;\n        }\n        else {\n            // Unknown opcode\n            this.pc += 4;\n        }\n    }\n\n    run() {\n        console.log("Starting VM...");\n        let steps = 0;\n        while (this.running && steps < 1000000) {\n            this.step();\n            steps++;\n        }\n        if (steps >= 1000000) {\n            console.log("Reached step limit.");\n        } else {\n            console.log("VM stopped.");\n        }\n    }\n}\n\nconst vm = new MipsVM(\'/app/doomgeneric_mips\');\nvm.run();\nEOF\nnode /app/vm.js\n'})
<< Loaded ELF. Entry point: 0x400110
Starting VM...
Reached step limit.
[exit=0 cwd=/app timed_out=false backend=harbor-env]

=== pi notifications (3) ===
[info] little-coder scaffold loaded
[info] knowledge-inject: +1 [Workspace Documentation]
[warning] quality-monitor: empty_response → injecting correction
